target datalayout = "e-m:e-p270:32:32-p271:32:32-p272:64:64-i64:64-i128:128-f80:128-n8:16:32:64-S128"
target triple = "x86_64-pc-linux-gnu"

%struct.PHP_HAVAL_CTX = type { [8 x i32], [2 x i32], [128 x i8], i8, i16, ptr }

@PADDING = internal constant <{ i8, [127 x i8] }> <{ i8 1, [127 x i8] zeroinitializer }>, align 16

; Function Attrs: nounwind uwtable
define dso_local void @PHP_HAVALUpdate(ptr noundef %0, ptr noundef %1, i64 noundef %2) #0 {
  %4 = alloca ptr, align 8
  %5 = alloca ptr, align 8
  %6 = alloca i64, align 8
  %7 = alloca i32, align 4
  %8 = alloca i32, align 4
  %9 = alloca i64, align 8
  store ptr %0, ptr %4, align 8, !tbaa !4
  store ptr %1, ptr %5, align 8, !tbaa !17
  store i64 %2, ptr %6, align 8, !tbaa !19
  call void @llvm.lifetime.start.p0(i64 4, ptr %7) #5
  call void @llvm.lifetime.start.p0(i64 4, ptr %8) #5
  call void @llvm.lifetime.start.p0(i64 8, ptr %9) #5
  %10 = load ptr, ptr %4, align 8, !tbaa !4
  %11 = getelementptr inbounds nuw %struct.PHP_HAVAL_CTX, ptr %10, i32 0, i32 1
  %12 = getelementptr inbounds [2 x i32], ptr %11, i64 0, i64 0
  %13 = load i32, ptr %12, align 8, !tbaa !10
  %14 = lshr i32 %13, 3
  %15 = and i32 %14, 127
  store i32 %15, ptr %7, align 4, !tbaa !10
  %16 = load i64, ptr %6, align 8, !tbaa !19
  %17 = trunc i64 %16 to i32
  %18 = shl i32 %17, 3
  %19 = load ptr, ptr %4, align 8, !tbaa !4
  %20 = getelementptr inbounds nuw %struct.PHP_HAVAL_CTX, ptr %19, i32 0, i32 1
  %21 = getelementptr inbounds [2 x i32], ptr %20, i64 0, i64 0
  %22 = load i32, ptr %21, align 8, !tbaa !10
  %23 = add i32 %22, %18
  store i32 %23, ptr %21, align 8, !tbaa !10
  %24 = load i64, ptr %6, align 8, !tbaa !19
  %25 = trunc i64 %24 to i32
  %26 = shl i32 %25, 3
  %27 = icmp ult i32 %23, %26
  br i1 %27, label %28, label %34

28:                                               ; preds = %3
  %29 = load ptr, ptr %4, align 8, !tbaa !4
  %30 = getelementptr inbounds nuw %struct.PHP_HAVAL_CTX, ptr %29, i32 0, i32 1
  %31 = getelementptr inbounds [2 x i32], ptr %30, i64 0, i64 1
  %32 = load i32, ptr %31, align 4, !tbaa !10
  %33 = add i32 %32, 1
  store i32 %33, ptr %31, align 4, !tbaa !10
  br label %34

34:                                               ; preds = %28, %3
  %35 = load i64, ptr %6, align 8, !tbaa !19
  %36 = lshr i64 %35, 29
  %37 = trunc i64 %36 to i32
  %38 = load ptr, ptr %4, align 8, !tbaa !4
  %39 = getelementptr inbounds nuw %struct.PHP_HAVAL_CTX, ptr %38, i32 0, i32 1
  %40 = getelementptr inbounds [2 x i32], ptr %39, i64 0, i64 1
  %41 = load i32, ptr %40, align 4, !tbaa !10
  %42 = add i32 %41, %37
  store i32 %42, ptr %40, align 4, !tbaa !10
  %43 = load i32, ptr %7, align 4, !tbaa !10
  %44 = sub i32 128, %43
  store i32 %44, ptr %8, align 4, !tbaa !10
  %45 = load i64, ptr %6, align 8, !tbaa !19
  %46 = load i32, ptr %8, align 4, !tbaa !10
  %47 = zext i32 %46 to i64
  %48 = icmp uge i64 %45, %47
  br i1 %48, label %49, label %88

49:                                               ; preds = %34
  %50 = load ptr, ptr %4, align 8, !tbaa !4
  %51 = getelementptr inbounds nuw %struct.PHP_HAVAL_CTX, ptr %50, i32 0, i32 2
  %52 = load i32, ptr %7, align 4, !tbaa !10
  %53 = zext i32 %52 to i64
  %54 = getelementptr inbounds nuw [128 x i8], ptr %51, i64 0, i64 %53
  %55 = load ptr, ptr %5, align 8, !tbaa !17
  %56 = load i32, ptr %8, align 4, !tbaa !10
  %57 = zext i32 %56 to i64
  call void @llvm.memcpy.p0.p0.i64(ptr align 1 %54, ptr align 1 %55, i64 %57, i1 false)
  %58 = load ptr, ptr %4, align 8, !tbaa !4
  %59 = getelementptr inbounds nuw %struct.PHP_HAVAL_CTX, ptr %58, i32 0, i32 5
  %60 = load ptr, ptr %59, align 8, !tbaa !16
  %61 = load ptr, ptr %4, align 8, !tbaa !4
  %62 = getelementptr inbounds nuw %struct.PHP_HAVAL_CTX, ptr %61, i32 0, i32 0
  %63 = getelementptr inbounds [8 x i32], ptr %62, i64 0, i64 0
  %64 = load ptr, ptr %4, align 8, !tbaa !4
  %65 = getelementptr inbounds nuw %struct.PHP_HAVAL_CTX, ptr %64, i32 0, i32 2
  %66 = getelementptr inbounds [128 x i8], ptr %65, i64 0, i64 0
  call void %60(ptr noundef %63, ptr noundef %66)
  %67 = load i32, ptr %8, align 4, !tbaa !10
  %68 = zext i32 %67 to i64
  store i64 %68, ptr %9, align 8, !tbaa !19
  br label %69

69:                                               ; preds = %84, %49
  %70 = load i64, ptr %9, align 8, !tbaa !19
  %71 = add i64 %70, 127
  %72 = load i64, ptr %6, align 8, !tbaa !19
  %73 = icmp ult i64 %71, %72
  br i1 %73, label %74, label %87

74:                                               ; preds = %69
  %75 = load ptr, ptr %4, align 8, !tbaa !4
  %76 = getelementptr inbounds nuw %struct.PHP_HAVAL_CTX, ptr %75, i32 0, i32 5
  %77 = load ptr, ptr %76, align 8, !tbaa !16
  %78 = load ptr, ptr %4, align 8, !tbaa !4
  %79 = getelementptr inbounds nuw %struct.PHP_HAVAL_CTX, ptr %78, i32 0, i32 0
  %80 = getelementptr inbounds [8 x i32], ptr %79, i64 0, i64 0
  %81 = load ptr, ptr %5, align 8, !tbaa !17
  %82 = load i64, ptr %9, align 8, !tbaa !19
  %83 = getelementptr inbounds nuw i8, ptr %81, i64 %82
  call void %77(ptr noundef %80, ptr noundef %83)
  br label %84

84:                                               ; preds = %74
  %85 = load i64, ptr %9, align 8, !tbaa !19
  %86 = add i64 %85, 128
  store i64 %86, ptr %9, align 8, !tbaa !19
  br label %69

87:                                               ; preds = %69
  store i32 0, ptr %7, align 4, !tbaa !10
  br label %89

88:                                               ; preds = %34
  store i64 0, ptr %9, align 8, !tbaa !19
  br label %89

89:                                               ; preds = %88, %87
  %90 = load ptr, ptr %4, align 8, !tbaa !4
  %91 = getelementptr inbounds nuw %struct.PHP_HAVAL_CTX, ptr %90, i32 0, i32 2
  %92 = load i32, ptr %7, align 4, !tbaa !10
  %93 = zext i32 %92 to i64
  %94 = getelementptr inbounds nuw [128 x i8], ptr %91, i64 0, i64 %93
  %95 = load ptr, ptr %5, align 8, !tbaa !17
  %96 = load i64, ptr %9, align 8, !tbaa !19
  %97 = getelementptr inbounds nuw i8, ptr %95, i64 %96
  %98 = load i64, ptr %6, align 8, !tbaa !19
  %99 = load i64, ptr %9, align 8, !tbaa !19
  %100 = sub i64 %98, %99
  call void @llvm.memcpy.p0.p0.i64(ptr align 1 %94, ptr align 1 %97, i64 %100, i1 false)
  call void @llvm.lifetime.end.p0(i64 8, ptr %9) #5
  call void @llvm.lifetime.end.p0(i64 4, ptr %8) #5
  call void @llvm.lifetime.end.p0(i64 4, ptr %7) #5
  ret void
}

; Function Attrs: nounwind uwtable
define internal void @Encode(ptr noundef %0, ptr noundef %1, i32 noundef %2) #0 {
  %4 = alloca ptr, align 8
  %5 = alloca ptr, align 8
  %6 = alloca i32, align 4
  %7 = alloca i32, align 4
  %8 = alloca i32, align 4
  store ptr %0, ptr %4, align 8, !tbaa !17
  store ptr %1, ptr %5, align 8, !tbaa !22
  store i32 %2, ptr %6, align 4, !tbaa !10
  call void @llvm.lifetime.start.p0(i64 4, ptr %7) #5
  call void @llvm.lifetime.start.p0(i64 4, ptr %8) #5
  store i32 0, ptr %7, align 4, !tbaa !10
  store i32 0, ptr %8, align 4, !tbaa !10
  br label %9

9:                                                ; preds = %64, %3
  %10 = load i32, ptr %8, align 4, !tbaa !10
  %11 = load i32, ptr %6, align 4, !tbaa !10
  %12 = icmp ult i32 %10, %11
  br i1 %12, label %13, label %69

13:                                               ; preds = %9
  %14 = load ptr, ptr %5, align 8, !tbaa !22
  %15 = load i32, ptr %7, align 4, !tbaa !10
  %16 = zext i32 %15 to i64
  %17 = getelementptr inbounds nuw i32, ptr %14, i64 %16
  %18 = load i32, ptr %17, align 4, !tbaa !10
  %19 = and i32 %18, 255
  %20 = trunc i32 %19 to i8
  %21 = load ptr, ptr %4, align 8, !tbaa !17
  %22 = load i32, ptr %8, align 4, !tbaa !10
  %23 = zext i32 %22 to i64
  %24 = getelementptr inbounds nuw i8, ptr %21, i64 %23
  store i8 %20, ptr %24, align 1, !tbaa !21
  %25 = load ptr, ptr %5, align 8, !tbaa !22
  %26 = load i32, ptr %7, align 4, !tbaa !10
  %27 = zext i32 %26 to i64
  %28 = getelementptr inbounds nuw i32, ptr %25, i64 %27
  %29 = load i32, ptr %28, align 4, !tbaa !10
  %30 = lshr i32 %29, 8
  %31 = and i32 %30, 255
  %32 = trunc i32 %31 to i8
  %33 = load ptr, ptr %4, align 8, !tbaa !17
  %34 = load i32, ptr %8, align 4, !tbaa !10
  %35 = add i32 %34, 1
  %36 = zext i32 %35 to i64
  %37 = getelementptr inbounds nuw i8, ptr %33, i64 %36
  store i8 %32, ptr %37, align 1, !tbaa !21
  %38 = load ptr, ptr %5, align 8, !tbaa !22
  %39 = load i32, ptr %7, align 4, !tbaa !10
  %40 = zext i32 %39 to i64
  %41 = getelementptr inbounds nuw i32, ptr %38, i64 %40
  %42 = load i32, ptr %41, align 4, !tbaa !10
  %43 = lshr i32 %42, 16
  %44 = and i32 %43, 255
  %45 = trunc i32 %44 to i8
  %46 = load ptr, ptr %4, align 8, !tbaa !17
  %47 = load i32, ptr %8, align 4, !tbaa !10
  %48 = add i32 %47, 2
  %49 = zext i32 %48 to i64
  %50 = getelementptr inbounds nuw i8, ptr %46, i64 %49
  store i8 %45, ptr %50, align 1, !tbaa !21
  %51 = load ptr, ptr %5, align 8, !tbaa !22
  %52 = load i32, ptr %7, align 4, !tbaa !10
  %53 = zext i32 %52 to i64
  %54 = getelementptr inbounds nuw i32, ptr %51, i64 %53
  %55 = load i32, ptr %54, align 4, !tbaa !10
  %56 = lshr i32 %55, 24
  %57 = and i32 %56, 255
  %58 = trunc i32 %57 to i8
  %59 = load ptr, ptr %4, align 8, !tbaa !17
  %60 = load i32, ptr %8, align 4, !tbaa !10
  %61 = add i32 %60, 3
  %62 = zext i32 %61 to i64
  %63 = getelementptr inbounds nuw i8, ptr %59, i64 %62
  store i8 %58, ptr %63, align 1, !tbaa !21
  br label %64

64:                                               ; preds = %13
  %65 = load i32, ptr %7, align 4, !tbaa !10
  %66 = add i32 %65, 1
  store i32 %66, ptr %7, align 4, !tbaa !10
  %67 = load i32, ptr %8, align 4, !tbaa !10
  %68 = add i32 %67, 4
  store i32 %68, ptr %8, align 4, !tbaa !10
  br label %9

69:                                               ; preds = %9
  call void @llvm.lifetime.end.p0(i64 4, ptr %8) #5
  call void @llvm.lifetime.end.p0(i64 4, ptr %7) #5
  ret void
}

; Function Attrs: nounwind uwtable
define dso_local void @PHP_HAVAL256Final(ptr noundef %0, ptr noundef %1) #0 {
  %3 = alloca ptr, align 8
  %4 = alloca ptr, align 8
  %5 = alloca [10 x i8], align 1
  %6 = alloca i32, align 4
  %7 = alloca i32, align 4
  store ptr %0, ptr %3, align 8, !tbaa !17
  store ptr %1, ptr %4, align 8, !tbaa !4
  call void @llvm.lifetime.start.p0(i64 10, ptr %5) #5
  call void @llvm.lifetime.start.p0(i64 4, ptr %6) #5
  call void @llvm.lifetime.start.p0(i64 4, ptr %7) #5
  %8 = load ptr, ptr %4, align 8, !tbaa !4
  %9 = getelementptr inbounds nuw %struct.PHP_HAVAL_CTX, ptr %8, i32 0, i32 3
  %10 = load i8, ptr %9, align 8, !tbaa !12
  %11 = sext i8 %10 to i32
  %12 = and i32 %11, 7
  %13 = shl i32 %12, 3
  %14 = or i32 1, %13
  %15 = load ptr, ptr %4, align 8, !tbaa !4
  %16 = getelementptr inbounds nuw %struct.PHP_HAVAL_CTX, ptr %15, i32 0, i32 4
  %17 = load i16, ptr %16, align 2, !tbaa !15
  %18 = sext i16 %17 to i32
  %19 = and i32 %18, 3
  %20 = shl i32 %19, 6
  %21 = or i32 %14, %20
  %22 = trunc i32 %21 to i8
  %23 = getelementptr inbounds [10 x i8], ptr %5, i64 0, i64 0
  store i8 %22, ptr %23, align 1, !tbaa !21
  %24 = load ptr, ptr %4, align 8, !tbaa !4
  %25 = getelementptr inbounds nuw %struct.PHP_HAVAL_CTX, ptr %24, i32 0, i32 4
  %26 = load i16, ptr %25, align 2, !tbaa !15
  %27 = sext i16 %26 to i32
  %28 = ashr i32 %27, 2
  %29 = trunc i32 %28 to i8
  %30 = getelementptr inbounds [10 x i8], ptr %5, i64 0, i64 1
  store i8 %29, ptr %30, align 1, !tbaa !21
  %31 = getelementptr inbounds [10 x i8], ptr %5, i64 0, i64 0
  %32 = getelementptr inbounds i8, ptr %31, i64 2
  %33 = load ptr, ptr %4, align 8, !tbaa !4
  %34 = getelementptr inbounds nuw %struct.PHP_HAVAL_CTX, ptr %33, i32 0, i32 1
  %35 = getelementptr inbounds [2 x i32], ptr %34, i64 0, i64 0
  call void @Encode(ptr noundef %32, ptr noundef %35, i32 noundef 8)
  %36 = load ptr, ptr %4, align 8, !tbaa !4
  %37 = getelementptr inbounds nuw %struct.PHP_HAVAL_CTX, ptr %36, i32 0, i32 1
  %38 = getelementptr inbounds [2 x i32], ptr %37, i64 0, i64 0
  %39 = load i32, ptr %38, align 8, !tbaa !10
  %40 = lshr i32 %39, 3
  %41 = and i32 %40, 127
  store i32 %41, ptr %6, align 4, !tbaa !10
  %42 = load i32, ptr %6, align 4, !tbaa !10
  %43 = icmp ult i32 %42, 118
  br i1 %43, label %44, label %47

44:                                               ; preds = %2
  %45 = load i32, ptr %6, align 4, !tbaa !10
  %46 = sub i32 118, %45
  br label %50

47:                                               ; preds = %2
  %48 = load i32, ptr %6, align 4, !tbaa !10
  %49 = sub i32 246, %48
  br label %50

50:                                               ; preds = %47, %44
  %51 = phi i32 [ %46, %44 ], [ %49, %47 ]
  store i32 %51, ptr %7, align 4, !tbaa !10
  %52 = load ptr, ptr %4, align 8, !tbaa !4
  %53 = load i32, ptr %7, align 4, !tbaa !10
  %54 = zext i32 %53 to i64
  call void @PHP_HAVALUpdate(ptr noundef %52, ptr noundef @PADDING, i64 noundef %54)
  %55 = load ptr, ptr %4, align 8, !tbaa !4
  %56 = getelementptr inbounds [10 x i8], ptr %5, i64 0, i64 0
  call void @PHP_HAVALUpdate(ptr noundef %55, ptr noundef %56, i64 noundef 10)
  %57 = load ptr, ptr %3, align 8, !tbaa !17
  %58 = load ptr, ptr %4, align 8, !tbaa !4
  %59 = getelementptr inbounds nuw %struct.PHP_HAVAL_CTX, ptr %58, i32 0, i32 0
  %60 = getelementptr inbounds [8 x i32], ptr %59, i64 0, i64 0
  call void @Encode(ptr noundef %57, ptr noundef %60, i32 noundef 32)
  %61 = load ptr, ptr %4, align 8, !tbaa !4
  call void @explicit_bzero(ptr noundef %61, i64 noundef 184) #5
  call void @llvm.lifetime.end.p0(i64 4, ptr %7) #5
  call void @llvm.lifetime.end.p0(i64 4, ptr %6) #5
  call void @llvm.lifetime.end.p0(i64 10, ptr %5) #5
  ret void
}